target datalayout = "e-m:e-p270:32:32-p271:32:32-p272:64:64-i64:64-i128:128-f80:128-n8:16:32:64-S128"
target triple = "x86_64-pc-linux-gnu"

%struct.stbi_io_callbacks = type { ptr, ptr, ptr }
%struct.stbi__context = type { i32, i32, i32, i32, %struct.stbi_io_callbacks, ptr, i32, i32, [128 x i8], i32, ptr, ptr, ptr, ptr }

; Function Attrs: mustprogress nounwind uwtable
define internal void @_ZL15stbi__start_memP13stbi__contextPKhi(ptr noundef %0, ptr noundef %1, i32 noundef %2) #0 {
  %4 = alloca ptr, align 8
  %5 = alloca ptr, align 8
  %6 = alloca i32, align 4
  store ptr %0, ptr %4, align 8, !tbaa !10
  store ptr %1, ptr %5, align 8, !tbaa !5
  store i32 %2, ptr %6, align 4, !tbaa !11
  %7 = load ptr, ptr %4, align 8, !tbaa !10
  %8 = getelementptr inbounds nuw %struct.stbi__context, ptr %7, i32 0, i32 4
  %9 = getelementptr inbounds nuw %struct.stbi_io_callbacks, ptr %8, i32 0, i32 0
  store ptr null, ptr %9, align 8, !tbaa !30
  %10 = load ptr, ptr %4, align 8, !tbaa !10
  %11 = getelementptr inbounds nuw %struct.stbi__context, ptr %10, i32 0, i32 6
  store i32 0, ptr %11, align 8, !tbaa !26
  %12 = load ptr, ptr %4, align 8, !tbaa !10
  %13 = getelementptr inbounds nuw %struct.stbi__context, ptr %12, i32 0, i32 9
  store i32 0, ptr %13, align 8, !tbaa !27
  %14 = load ptr, ptr %5, align 8, !tbaa !5
  %15 = load ptr, ptr %4, align 8, !tbaa !10
  %16 = getelementptr inbounds nuw %struct.stbi__context, ptr %15, i32 0, i32 12
  store ptr %14, ptr %16, align 8, !tbaa !28
  %17 = load ptr, ptr %4, align 8, !tbaa !10
  %18 = getelementptr inbounds nuw %struct.stbi__context, ptr %17, i32 0, i32 10
  store ptr %14, ptr %18, align 8, !tbaa !20
  %19 = load ptr, ptr %5, align 8, !tbaa !5
  %20 = load i32, ptr %6, align 4, !tbaa !11
  %21 = sext i32 %20 to i64
  %22 = getelementptr inbounds i8, ptr %19, i64 %21
  %23 = load ptr, ptr %4, align 8, !tbaa !10
  %24 = getelementptr inbounds nuw %struct.stbi__context, ptr %23, i32 0, i32 13
  store ptr %22, ptr %24, align 8, !tbaa !29
  %25 = load ptr, ptr %4, align 8, !tbaa !10
  %26 = getelementptr inbounds nuw %struct.stbi__context, ptr %25, i32 0, i32 11
  store ptr %22, ptr %26, align 8, !tbaa !17
  ret void
}

; Function Attrs: mustprogress uwtable
define dso_local ptr @stbi_load_16_from_memory(ptr noundef %0, i32 noundef %1, ptr noundef %2, ptr noundef %3, ptr noundef %4, i32 noundef %5) #2 {
  %7 = alloca ptr, align 8
  %8 = alloca i32, align 4
  %9 = alloca ptr, align 8
  %10 = alloca ptr, align 8
  %11 = alloca ptr, align 8
  %12 = alloca i32, align 4
  %13 = alloca %struct.stbi__context, align 8
  store ptr %0, ptr %7, align 8, !tbaa !5
  store i32 %1, ptr %8, align 4, !tbaa !11
  store ptr %2, ptr %9, align 8, !tbaa !13
  store ptr %3, ptr %10, align 8, !tbaa !13
  store ptr %4, ptr %11, align 8, !tbaa !13
  store i32 %5, ptr %12, align 4, !tbaa !11
  call void @llvm.lifetime.start.p0(i64 224, ptr %13) #22
  %14 = load ptr, ptr %7, align 8, !tbaa !5
  %15 = load i32, ptr %8, align 4, !tbaa !11
  call void @_ZL15stbi__start_memP13stbi__contextPKhi(ptr noundef %13, ptr noundef %14, i32 noundef %15)
  %16 = load ptr, ptr %9, align 8, !tbaa !13
  %17 = load ptr, ptr %10, align 8, !tbaa !13
  %18 = load ptr, ptr %11, align 8, !tbaa !13
  %19 = load i32, ptr %12, align 4, !tbaa !11
  %20 = call noundef ptr @_ZL32stbi__load_and_postprocess_16bitP13stbi__contextPiS1_S1_i(ptr noundef %13, ptr noundef %16, ptr noundef %17, ptr noundef %18, i32 noundef %19)
  call void @llvm.lifetime.end.p0(i64 224, ptr %13) #22
  ret ptr %20
}